; Function Attrs: nounwind uwtable
define i32 @ffio_close_null_buf(ptr noundef %0) local_unnamed_addr #3 {
  %2 = alloca ptr, align 8
  store ptr %0, ptr %2, align 8, !tbaa !79
  %3 = getelementptr inbounds nuw i8, ptr %0, i64 40
  %4 = load ptr, ptr %3, align 8, !tbaa !18
  %5 = getelementptr inbounds nuw i8, ptr %0, i64 88
  %6 = load i32, ptr %5, align 8, !tbaa !20
  %.not.i = icmp eq i32 %6, 0
  br i1 %.not.i, label %.thread.i, label %7

7:                                                ; preds = %1
  %8 = getelementptr inbounds nuw i8, ptr %0, i64 24
  %9 = load ptr, ptr %8, align 8, !tbaa !16
  %10 = getelementptr inbounds nuw i8, ptr %0, i64 184
  %11 = load ptr, ptr %10, align 8, !tbaa !17
  %12 = ptrtoint ptr %9 to i64
  %13 = ptrtoint ptr %11 to i64
  %14 = sub i64 %12, %13
  %15 = icmp slt i64 %14, 0
  br i1 %15, label %16, label %.thread.i

.thread.i:                                        ; preds = %7, %1
  tail call fastcc void @flush_buffer(ptr noundef nonnull %0)
  br label %avio_flush.exit

16:                                               ; preds = %7
  tail call fastcc void @flush_buffer(ptr noundef nonnull %0)
  %17 = and i64 %14, 4294967295
  %.not9.i = icmp eq i64 %17, 0
  br i1 %.not9.i, label %avio_flush.exit, label %18

18:                                               ; preds = %16
  %sext.i = shl i64 %14, 32
  %19 = ashr exact i64 %sext.i, 32
  %20 = tail call i64 @avio_seek(ptr noundef nonnull %0, i64 noundef %19, i32 noundef 1)
  br label %avio_flush.exit

avio_flush.exit:                                  ; preds = %.thread.i, %16, %18
  %21 = getelementptr inbounds nuw i8, ptr %4, i64 4
  %22 = load i32, ptr %21, align 4, !tbaa !81
  call void @av_freep(ptr noundef nonnull %2) #14
  ret i32 %22
}